; Function Attrs: mustprogress nounwind uwtable
define dso_local noundef ptr @_ZN5clang18ExternCContextDecl6CreateERKNS_10ASTContextEPNS_19TranslationUnitDeclE(ptr noundef nonnull align 8 dereferenceable(23096) %0, ptr noundef %1) local_unnamed_addr #2 align 2 {
  %3 = icmp eq ptr %1, null
  %4 = getelementptr inbounds i8, ptr %1, i64 40
  %spec.select = select i1 %3, ptr null, ptr %4
  %5 = tail call noundef ptr @_ZN5clang4DeclnwEmRKNS_10ASTContextEPNS_11DeclContextEm(i64 noundef 72, ptr noundef nonnull align 8 dereferenceable(23096) %0, ptr noundef %spec.select, i64 noundef 0) #27
  tail call void @_ZN5clang4DeclC2ENS0_4KindEPNS_11DeclContextENS_14SourceLocationE(ptr noundef nonnull align 8 dereferenceable(33) %5, i32 noundef 4, ptr noundef %spec.select, i32 0)
  %6 = getelementptr inbounds i8, ptr %5, i64 40
  tail call void @_ZN5clang11DeclContextC2ENS_4Decl4KindE(ptr noundef nonnull align 8 dereferenceable(32) %6, i32 noundef 4) #27
  store ptr getelementptr inbounds inrange(-16, 88) (i8, ptr @_ZTVN5clang18ExternCContextDeclE, i64 16), ptr %5, align 8
  ret ptr %5
}